target datalayout = "e-m:e-p270:32:32-p271:32:32-p272:64:64-i64:64-i128:128-f80:128-n8:16:32:64-S128"
target triple = "x86_64-pc-linux-gnu"

%struct.evkeyvalq = type { ptr, ptr }
%struct.evkeyval = type { %struct.anon.10, ptr, ptr }
%struct.anon.10 = type { ptr, ptr }

; Function Attrs: nounwind uwtable
define ptr @evhttp_find_header(ptr noundef %0, ptr noundef %1) #0 {
  %3 = alloca ptr, align 8
  %4 = alloca ptr, align 8
  %5 = alloca ptr, align 8
  %6 = alloca ptr, align 8
  %7 = alloca i32, align 4
  store ptr %0, ptr %4, align 8
  store ptr %1, ptr %5, align 8
  call void @llvm.lifetime.start.p0(i64 8, ptr %6) #11
  %8 = load ptr, ptr %4, align 8
  %9 = getelementptr inbounds nuw %struct.evkeyvalq, ptr %8, i32 0, i32 0
  %10 = load ptr, ptr %9, align 8
  store ptr %10, ptr %6, align 8
  br label %11

11:                                               ; preds = %26, %2
  %12 = load ptr, ptr %6, align 8
  %13 = icmp ne ptr %12, null
  br i1 %13, label %14, label %31

14:                                               ; preds = %11
  %15 = load ptr, ptr %6, align 8
  %16 = getelementptr inbounds nuw %struct.evkeyval, ptr %15, i32 0, i32 1
  %17 = load ptr, ptr %16, align 8
  %18 = load ptr, ptr %5, align 8
  %19 = call i32 @evutil_ascii_strcasecmp(ptr noundef %17, ptr noundef %18)
  %20 = icmp eq i32 %19, 0
  br i1 %20, label %21, label %25

21:                                               ; preds = %14
  %22 = load ptr, ptr %6, align 8
  %23 = getelementptr inbounds nuw %struct.evkeyval, ptr %22, i32 0, i32 2
  %24 = load ptr, ptr %23, align 8
  store ptr %24, ptr %3, align 8
  store i32 1, ptr %7, align 4
  br label %32

25:                                               ; preds = %14
  br label %26

26:                                               ; preds = %25
  %27 = load ptr, ptr %6, align 8
  %28 = getelementptr inbounds nuw %struct.evkeyval, ptr %27, i32 0, i32 0
  %29 = getelementptr inbounds nuw %struct.anon.10, ptr %28, i32 0, i32 0
  %30 = load ptr, ptr %29, align 8
  store ptr %30, ptr %6, align 8
  br label %11, !llvm.loop !7

31:                                               ; preds = %11
  store ptr null, ptr %3, align 8
  store i32 1, ptr %7, align 4
  br label %32

32:                                               ; preds = %31, %21
  call void @llvm.lifetime.end.p0(i64 8, ptr %6) #11
  %33 = load ptr, ptr %3, align 8
  ret ptr %33
}