; Function Attrs: nounwind uwtable
define ptr @evhttp_find_header(ptr noundef readonly captures(none) %0, ptr noundef %1) local_unnamed_addr #0 {
  br label %3

3:                                                ; preds = %4, %2
  %.0.in = phi ptr [ %0, %2 ], [ %.0, %4 ]
  %.0 = load ptr, ptr %.0.in, align 8
  %.not = icmp eq ptr %.0, null
  br i1 %.not, label %.loopexit, label %4

4:                                                ; preds = %3
  %5 = getelementptr inbounds nuw i8, ptr %.0, i64 16
  %6 = load ptr, ptr %5, align 8
  %7 = tail call i32 @evutil_ascii_strcasecmp(ptr noundef %6, ptr noundef %1) #18
  %8 = icmp eq i32 %7, 0
  br i1 %8, label %9, label %3, !llvm.loop !7

9:                                                ; preds = %4
  %10 = getelementptr inbounds nuw i8, ptr %.0, i64 24
  %11 = load ptr, ptr %10, align 8
  br label %.loopexit

.loopexit:                                        ; preds = %3, %9
  %.07 = phi ptr [ %11, %9 ], [ null, %3 ]
  ret ptr %.07
}